target datalayout = "e-m:e-p270:32:32-p271:32:32-p272:64:64-i64:64-i128:128-f80:128-n8:16:32:64-S128"
target triple = "x86_64-unknown-linux-gnu"

%"class.dpx::Writer" = type { ptr, %"struct.dpx::Header", i64, ptr }
%"struct.dpx::Header" = type <{ %"struct.dpx::GenericHeader", %"struct.dpx::IndustryHeader", i8, [3 x i8] }>
%"struct.dpx::GenericHeader" = type { i32, i32, [8 x i8], i32, i32, i32, i32, i32, [100 x i8], [24 x i8], [100 x i8], [200 x i8], [200 x i8], i32, [104 x i8], i16, i16, i32, i32, [8 x %"struct.dpx::ImageElement"], [52 x i8], i32, i32, float, float, i32, i32, [100 x i8], [24 x i8], [32 x i8], [32 x i8], [4 x i16], [2 x i32], float, float, [20 x i8] }
%"struct.dpx::ImageElement" = type { i32, i32, float, i32, float, i8, i8, i8, i8, i16, i16, i32, i32, i32, [32 x i8] }
%"struct.dpx::IndustryHeader" = type { [2 x i8], [2 x i8], [2 x i8], [6 x i8], [4 x i8], [32 x i8], i32, i32, i32, float, float, [32 x i8], [100 x i8], [56 x i8], i32, i32, i8, i8, i8, i8, float, float, float, float, float, float, float, float, float, float, [76 x i8] }

; Function Attrs: mustprogress nounwind uwtable
define linkonce_odr hidden void @_ZN3dpx13GenericHeader18SetLinesPerElementEj(ptr noundef nonnull align 4 dereferenceable(1664) %this, i32 noundef %lpe) #1 comdat align 2 {
entry:
  %this.addr = alloca ptr, align 8
  %lpe.addr = alloca i32, align 4
  store ptr %this, ptr %this.addr, align 8
  store i32 %lpe, ptr %lpe.addr, align 4
  %this1 = load ptr, ptr %this.addr, align 8
  %0 = load i32, ptr %lpe.addr, align 4
  %linesPerElement = getelementptr inbounds %"struct.dpx::GenericHeader", ptr %this1, i32 0, i32 18
  store i32 %0, ptr %linesPerElement, align 4
  ret void
}

; Function Attrs: mustprogress nounwind uwtable
define linkonce_odr hidden void @_ZN3dpx13GenericHeader16SetPixelsPerLineEj(ptr noundef nonnull align 4 dereferenceable(1664) %this, i32 noundef %ppl) #1 comdat align 2 {
entry:
  %this.addr = alloca ptr, align 8
  %ppl.addr = alloca i32, align 4
  store ptr %this, ptr %this.addr, align 8
  store i32 %ppl, ptr %ppl.addr, align 4
  %this1 = load ptr, ptr %this.addr, align 8
  %0 = load i32, ptr %ppl.addr, align 4
  %pixelsPerLine = getelementptr inbounds %"struct.dpx::GenericHeader", ptr %this1, i32 0, i32 17
  store i32 %0, ptr %pixelsPerLine, align 4
  ret void
}

; Function Attrs: mustprogress nounwind uwtable
define linkonce_odr hidden void @_ZN3dpx13GenericHeader19SetImageOrientationENS_11OrientationE(ptr noundef nonnull align 4 dereferenceable(1664) %this, i32 noundef %orient) #1 comdat align 2 {
entry:
  %this.addr = alloca ptr, align 8
  %orient.addr = alloca i32, align 4
  store ptr %this, ptr %this.addr, align 8
  store i32 %orient, ptr %orient.addr, align 4
  %this1 = load ptr, ptr %this.addr, align 8
  %0 = load i32, ptr %orient.addr, align 4
  %conv = trunc i32 %0 to i16
  %imageOrientation = getelementptr inbounds %"struct.dpx::GenericHeader", ptr %this1, i32 0, i32 15
  store i16 %conv, ptr %imageOrientation, align 4
  ret void
}

; Function Attrs: mustprogress uwtable
define hidden void @_ZN3dpx6Writer12SetImageInfoEjj(ptr noundef nonnull align 8 dereferenceable(2080) %this, i32 noundef %width, i32 noundef %height) #6 align 2 {
entry:
  %this.addr = alloca ptr, align 8
  %width.addr = alloca i32, align 4
  %height.addr = alloca i32, align 4
  store ptr %this, ptr %this.addr, align 8
  store i32 %width, ptr %width.addr, align 4
  store i32 %height, ptr %height.addr, align 4
  %this1 = load ptr, ptr %this.addr, align 8
  %header = getelementptr inbounds %"class.dpx::Writer", ptr %this1, i32 0, i32 1
  call void @_ZN3dpx13GenericHeader19SetImageOrientationENS_11OrientationE(ptr noundef nonnull align 4 dereferenceable(1664) %header, i32 noundef 0)
  %header2 = getelementptr inbounds %"class.dpx::Writer", ptr %this1, i32 0, i32 1
  %0 = load i32, ptr %width.addr, align 4
  call void @_ZN3dpx13GenericHeader16SetPixelsPerLineEj(ptr noundef nonnull align 4 dereferenceable(1664) %header2, i32 noundef %0)
  %header3 = getelementptr inbounds %"class.dpx::Writer", ptr %this1, i32 0, i32 1
  %1 = load i32, ptr %height.addr, align 4
  call void @_ZN3dpx13GenericHeader18SetLinesPerElementEj(ptr noundef nonnull align 4 dereferenceable(1664) %header3, i32 noundef %1)
  ret void
}