; Function Attrs: mustprogress nofree norecurse nosync nounwind willreturn memory(argmem: write) uwtable
define hidden void @_ZN3dpx6Writer12SetImageInfoEjj(ptr nocapture noundef nonnull writeonly align 8 dereferenceable(2080) %this, i32 noundef %width, i32 noundef %height) local_unnamed_addr #8 align 2 {
entry:
  %imageOrientation.i = getelementptr inbounds i8, ptr %this, i64 776
  store i16 0, ptr %imageOrientation.i, align 8
  %pixelsPerLine.i = getelementptr inbounds i8, ptr %this, i64 780
  store i32 %width, ptr %pixelsPerLine.i, align 4
  %linesPerElement.i = getelementptr inbounds i8, ptr %this, i64 784
  store i32 %height, ptr %linesPerElement.i, align 8
  ret void
}